; Function Attrs: mustprogress uwtable
define void @_ZNK7openvdb5v11_02io10MappedFile8filenameB5cxx11Ev(ptr noalias nonnull sret(%"class.std::__cxx11::basic_string") align 8 %agg.result, ptr nocapture noundef nonnull readonly align 8 dereferenceable(8) %this) local_unnamed_addr #6 align 2 personality ptr @__gxx_personality_v0 {
entry:
  tail call void @_ZNSt7__cxx1112basic_stringIcSt11char_traitsIcESaIcEEC1Ev(ptr noundef nonnull align 8 dereferenceable(32) %agg.result) #25
  %0 = load ptr, ptr %this, align 8
  %m_filename.i = getelementptr inbounds i8, ptr %0, i64 8
  %call.i = tail call noundef ptr @_ZNKSt7__cxx1112basic_stringIcSt11char_traitsIcESaIcEE5c_strEv(ptr noundef nonnull align 8 dereferenceable(32) %m_filename.i) #25
  %tobool.not = icmp eq ptr %call.i, null
  br i1 %tobool.not, label %nrvo.skipdtor, label %if.then

if.then:                                          ; preds = %entry
  %call4 = invoke noundef nonnull align 8 dereferenceable(32) ptr @_ZNSt7__cxx1112basic_stringIcSt11char_traitsIcESaIcEEaSEPKc(ptr noundef nonnull align 8 dereferenceable(32) %agg.result, ptr noundef nonnull %call.i)
          to label %nrvo.skipdtor unwind label %lpad

lpad:                                             ; preds = %if.then
  %1 = landingpad { ptr, i32 }
          cleanup
  tail call void @_ZNSt7__cxx1112basic_stringIcSt11char_traitsIcESaIcEED1Ev(ptr noundef nonnull align 8 dereferenceable(32) %agg.result) #25
  resume { ptr, i32 } %1

nrvo.skipdtor:                                    ; preds = %entry, %if.then
  ret void
}